; Function Attrs: mustprogress nofree nounwind uwtable
define noundef zeroext i1 @_ZN4base9CloseFileEP8_IO_FILE(ptr noundef captures(address_is_null) %0) local_unnamed_addr #8 {
  %2 = icmp eq ptr %0, null
  br i1 %2, label %6, label %3

3:                                                ; preds = %1
  %4 = tail call i32 @fclose(ptr noundef nonnull %0)
  %5 = icmp eq i32 %4, 0
  br label %6

6:                                                ; preds = %1, %3
  %.0 = phi i1 [ %5, %3 ], [ true, %1 ]
  ret i1 %.0
}